; Function Attrs: mustprogress uwtable
define void @_ZNK5Ipopt15TransposeMatrix9PrintImplERKNS_10JournalistENS_13EJournalLevelENS_16EJournalCategoryERKNSt7__cxx1112basic_stringIcSt11char_traitsIcESaIcEEEiSD_(ptr nocapture noundef nonnull readonly align 8 dereferenceable(80) %0, ptr noundef nonnull align 8 dereferenceable(40) %1, i32 noundef %2, i32 noundef %3, ptr noundef nonnull align 8 dereferenceable(32) %4, i32 noundef %5, ptr noundef nonnull align 8 dereferenceable(32) %6) unnamed_addr #0 align 2 personality ptr @__gxx_personality_v0 {
  %8 = alloca %"class.std::__cxx11::basic_string", align 8
  %9 = alloca %"class.Ipopt::SmartPtr.9", align 8
  %10 = load ptr, ptr %1, align 8
  %11 = getelementptr inbounds i8, ptr %10, i64 16
  %12 = load ptr, ptr %11, align 8
  tail call void (ptr, i32, i32, ptr, ...) %12(ptr noundef nonnull align 8 dereferenceable(40) %1, i32 noundef %2, i32 noundef %3, ptr noundef nonnull @.str)
  %13 = tail call noundef ptr @_ZNKSt7__cxx1112basic_stringIcSt11char_traitsIcESaIcEE5c_strEv(ptr noundef nonnull align 8 dereferenceable(32) %6) #9
  %14 = tail call noundef ptr @_ZNKSt7__cxx1112basic_stringIcSt11char_traitsIcESaIcEE5c_strEv(ptr noundef nonnull align 8 dereferenceable(32) %4) #9
  %15 = load ptr, ptr %1, align 8
  %16 = getelementptr inbounds i8, ptr %15, i64 32
  %17 = load ptr, ptr %16, align 8
  tail call void (ptr, i32, i32, i32, ptr, ...) %17(ptr noundef nonnull align 8 dereferenceable(40) %1, i32 noundef %2, i32 noundef %3, i32 noundef %5, ptr noundef nonnull @.str.1, ptr noundef %13, ptr noundef %14)
  call void @_ZNSt7__cxx1112basic_stringIcSt11char_traitsIcESaIcEEC1ERKS4_(ptr noundef nonnull align 8 dereferenceable(32) %8, ptr noundef nonnull align 8 dereferenceable(32) %4)
  %18 = invoke noundef nonnull align 8 dereferenceable(32) ptr @_ZNSt7__cxx1112basic_stringIcSt11char_traitsIcESaIcEE6appendEPKc(ptr noundef nonnull align 8 dereferenceable(32) %8, ptr noundef nonnull @.str.2)
          to label %21 unwind label %19

common.resume:                                    ; preds = %42, %45, %50, %19
  %common.resume.op = phi { ptr, i32 } [ %20, %19 ], [ %43, %50 ], [ %43, %45 ], [ %43, %42 ]
  call void @_ZNSt7__cxx1112basic_stringIcSt11char_traitsIcESaIcEED1Ev(ptr noundef nonnull align 8 dereferenceable(32) %8) #9
  resume { ptr, i32 } %common.resume.op

19:                                               ; preds = %7
  %20 = landingpad { ptr, i32 }
          cleanup
  br label %common.resume

21:                                               ; preds = %7
  %22 = getelementptr inbounds i8, ptr %0, i64 72
  %23 = load ptr, ptr %22, align 8
  %24 = getelementptr inbounds i8, ptr %1, i64 8
  %25 = load i32, ptr %24, align 8
  %26 = add nsw i32 %25, 1
  store i32 %26, ptr %24, align 8
  store ptr %1, ptr %9, align 8
  %27 = add nsw i32 %5, 1
  %28 = load ptr, ptr %23, align 8
  %29 = getelementptr inbounds i8, ptr %28, i64 16
  %30 = load ptr, ptr %29, align 8
  invoke void %30(ptr noundef nonnull align 8 dereferenceable(69) %23, ptr noundef nonnull %9, i32 noundef %2, i32 noundef %3, ptr noundef nonnull align 8 dereferenceable(32) %8, i32 noundef %27, ptr noundef nonnull align 8 dereferenceable(32) %6)
          to label %31 unwind label %42

31:                                               ; preds = %21
  %32 = load ptr, ptr %9, align 8
  %.not.i.i = icmp eq ptr %32, null
  br i1 %.not.i.i, label %_ZN5Ipopt8SmartPtrIKNS_10JournalistEED2Ev.exit, label %33

33:                                               ; preds = %31
  %34 = getelementptr inbounds i8, ptr %32, i64 8
  %35 = load i32, ptr %34, align 8
  %36 = add nsw i32 %35, -1
  store i32 %36, ptr %34, align 8
  %37 = icmp eq i32 %36, 0
  br i1 %37, label %38, label %_ZN5Ipopt8SmartPtrIKNS_10JournalistEED2Ev.exit

38:                                               ; preds = %33
  %39 = load ptr, ptr %32, align 8
  %40 = getelementptr inbounds i8, ptr %39, i64 8
  %41 = load ptr, ptr %40, align 8
  call void %41(ptr noundef nonnull align 8 dereferenceable(40) %32) #9
  br label %_ZN5Ipopt8SmartPtrIKNS_10JournalistEED2Ev.exit

_ZN5Ipopt8SmartPtrIKNS_10JournalistEED2Ev.exit:   ; preds = %31, %33, %38
  call void @_ZNSt7__cxx1112basic_stringIcSt11char_traitsIcESaIcEED1Ev(ptr noundef nonnull align 8 dereferenceable(32) %8) #9
  ret void

42:                                               ; preds = %21
  %43 = landingpad { ptr, i32 }
          cleanup
  %44 = load ptr, ptr %9, align 8
  %.not.i.i19 = icmp eq ptr %44, null
  br i1 %.not.i.i19, label %common.resume, label %45

45:                                               ; preds = %42
  %46 = getelementptr inbounds i8, ptr %44, i64 8
  %47 = load i32, ptr %46, align 8
  %48 = add nsw i32 %47, -1
  store i32 %48, ptr %46, align 8
  %49 = icmp eq i32 %48, 0
  br i1 %49, label %50, label %common.resume

50:                                               ; preds = %45
  %51 = load ptr, ptr %44, align 8
  %52 = getelementptr inbounds i8, ptr %51, i64 8
  %53 = load ptr, ptr %52, align 8
  call void %53(ptr noundef nonnull align 8 dereferenceable(40) %44) #9
  br label %common.resume
}